target datalayout = "e-m:e-p270:32:32-p271:32:32-p272:64:64-i64:64-i128:128-f80:128-n8:16:32:64-S128"
target triple = "x86_64-pc-linux-gnu"

; Function Attrs: nounwind uwtable
define i32 @wc_rng_new_ex(ptr noundef %0, ptr noundef %1, i32 noundef %2, ptr noundef %3, i32 noundef %4) #0 {
  %6 = alloca i32, align 4
  %7 = alloca ptr, align 8
  %8 = alloca ptr, align 8
  %9 = alloca i32, align 4
  %10 = alloca ptr, align 8
  %11 = alloca i32, align 4
  %12 = alloca i32, align 4
  %13 = alloca i32, align 4
  %14 = alloca ptr, align 8
  store ptr %0, ptr %7, align 8, !tbaa !27
  store ptr %1, ptr %8, align 8, !tbaa !8
  store i32 %2, ptr %9, align 4, !tbaa !10
  store ptr %3, ptr %10, align 8, !tbaa !24
  store i32 %4, ptr %11, align 4, !tbaa !10
  call void @llvm.lifetime.start.p0(i64 4, ptr %12) #6
  %15 = call ptr @wolfSSL_Malloc(i64 noundef 32)
  %16 = load ptr, ptr %7, align 8, !tbaa !27
  store ptr %15, ptr %16, align 8, !tbaa !3
  %17 = load ptr, ptr %7, align 8, !tbaa !27
  %18 = load ptr, ptr %17, align 8, !tbaa !3
  %19 = icmp eq ptr %18, null
  br i1 %19, label %20, label %21

20:                                               ; preds = %5
  store i32 -125, ptr %6, align 4
  store i32 1, ptr %13, align 4
  br label %45

21:                                               ; preds = %5
  %22 = load ptr, ptr %7, align 8, !tbaa !27
  %23 = load ptr, ptr %22, align 8, !tbaa !3
  %24 = load ptr, ptr %8, align 8, !tbaa !8
  %25 = load i32, ptr %9, align 4, !tbaa !10
  %26 = load ptr, ptr %10, align 8, !tbaa !24
  %27 = load i32, ptr %11, align 4, !tbaa !10
  %28 = call i32 @_InitRng(ptr noundef %23, ptr noundef %24, i32 noundef %25, ptr noundef %26, i32 noundef %27)
  store i32 %28, ptr %12, align 4, !tbaa !10
  %29 = load i32, ptr %12, align 4, !tbaa !10
  %30 = icmp ne i32 %29, 0
  br i1 %30, label %31, label %43

31:                                               ; preds = %21
  br label %32

32:                                               ; preds = %31
  call void @llvm.lifetime.start.p0(i64 8, ptr %14) #6
  %33 = load ptr, ptr %7, align 8, !tbaa !27
  %34 = load ptr, ptr %33, align 8, !tbaa !3
  store ptr %34, ptr %14, align 8, !tbaa !24
  %35 = load ptr, ptr %14, align 8, !tbaa !24
  %36 = icmp ne ptr %35, null
  br i1 %36, label %37, label %39

37:                                               ; preds = %32
  %38 = load ptr, ptr %14, align 8, !tbaa !24
  call void @wolfSSL_Free(ptr noundef %38)
  br label %39

39:                                               ; preds = %37, %32
  call void @llvm.lifetime.end.p0(i64 8, ptr %14) #6
  br label %40

40:                                               ; preds = %39
  br label %41

41:                                               ; preds = %40
  %42 = load ptr, ptr %7, align 8, !tbaa !27
  store ptr null, ptr %42, align 8, !tbaa !3
  br label %43

43:                                               ; preds = %41, %21
  %44 = load i32, ptr %12, align 4, !tbaa !10
  store i32 %44, ptr %6, align 4
  store i32 1, ptr %13, align 4
  br label %45

45:                                               ; preds = %43, %20
  call void @llvm.lifetime.end.p0(i64 4, ptr %12) #6
  %46 = load i32, ptr %6, align 4
  ret i32 %46
}