; Function Attrs: nounwind uwtable
define range(i32 -209, 3) i32 @wc_rng_new_ex(ptr noundef captures(none) initializes((0, 8)) %0, ptr noundef %1, i32 noundef %2, ptr noundef %3, i32 noundef %4) local_unnamed_addr #0 {
  %6 = tail call ptr @wolfSSL_Malloc(i64 noundef 32) #9
  store ptr %6, ptr %0, align 8, !tbaa !25
  %7 = icmp eq ptr %6, null
  br i1 %7, label %14, label %8

8:                                                ; preds = %5
  %9 = tail call fastcc i32 @_InitRng(ptr noundef nonnull %6, ptr noundef %1, i32 noundef %2, ptr noundef %3, i32 noundef %4)
  %.not = icmp eq i32 %9, 0
  br i1 %.not, label %14, label %10

10:                                               ; preds = %8
  %11 = load ptr, ptr %0, align 8, !tbaa !25
  %.not15 = icmp eq ptr %11, null
  br i1 %.not15, label %13, label %12

12:                                               ; preds = %10
  tail call void @wolfSSL_Free(ptr noundef nonnull %11) #9
  br label %13

13:                                               ; preds = %12, %10
  store ptr null, ptr %0, align 8, !tbaa !25
  br label %14

14:                                               ; preds = %8, %13, %5
  %.0 = phi i32 [ -125, %5 ], [ %9, %13 ], [ 0, %8 ]
  ret i32 %.0
}